; Function Attrs: nofree norecurse nosync nounwind memory(argmem: readwrite) uwtable
define internal void @put_mspel8_mc22_c(ptr noundef writeonly captures(none) %0, ptr noundef readonly captures(none) %1, i64 noundef %2) #1 {
  %4 = alloca [88 x i8], align 16
  call void @llvm.lifetime.start.p0(i64 88, ptr nonnull %4) #6
  %5 = sub i64 0, %2
  %6 = getelementptr inbounds i8, ptr %1, i64 %5
  %7 = trunc i64 %2 to i32
  call fastcc void @wmv2_mspel8_h_lowpass(ptr noundef nonnull %4, ptr noundef %6, i32 noundef 8, i32 noundef %7, i32 noundef 11)
  %8 = getelementptr inbounds nuw i8, ptr %4, i64 8
  call fastcc void @wmv2_mspel8_v_lowpass(ptr noundef %0, ptr noundef nonnull %8, i32 noundef %7, i32 noundef 8)
  call void @llvm.lifetime.end.p0(i64 88, ptr nonnull %4) #6
  ret void
}